; Function Attrs: mustprogress nofree norecurse nosync nounwind willreturn memory(read, inaccessiblemem: none) uwtable
define dso_local noundef zeroext i1 @_ZNK4llvm9MCContext29emitCompactUnwindNonCanonicalEv(ptr nocapture noundef nonnull readonly align 8 dereferenceable(2432) %0) local_unnamed_addr #8 align 2 {
  %2 = getelementptr inbounds nuw i8, ptr %0, i64 2344
  %3 = load ptr, ptr %2, align 8
  %.not = icmp eq ptr %3, null
  br i1 %.not, label %8, label %4

4:                                                ; preds = %1
  %5 = getelementptr inbounds nuw i8, ptr %3, i64 200
  %6 = load i8, ptr %5, align 8
  %7 = trunc i8 %6 to i1
  br label %8

8:                                                ; preds = %1, %4
  %.0 = phi i1 [ %7, %4 ], [ false, %1 ]
  ret i1 %.0
}